; Function Attrs: mustprogress nounwind willreturn memory(readwrite, argmem: none) uwtable
define noalias noundef ptr @OSQPVectori_calloc(i64 noundef %0) local_unnamed_addr #2 {
  %2 = tail call noalias dereferenceable_or_null(16) ptr @malloc(i64 noundef 16) #18
  %.not = icmp eq ptr %2, null
  br i1 %.not, label %9, label %3

3:                                                ; preds = %1
  %4 = getelementptr inbounds i8, ptr %2, i64 8
  store i64 %0, ptr %4, align 8
  %.not11 = icmp eq i64 %0, 0
  br i1 %.not11, label %8, label %5

5:                                                ; preds = %3
  %6 = tail call noalias ptr @calloc(i64 noundef %0, i64 noundef 8) #20
  store ptr %6, ptr %2, align 8
  %.not12 = icmp eq ptr %6, null
  br i1 %.not12, label %7, label %9

7:                                                ; preds = %5
  tail call void @free(ptr noundef nonnull %2) #19
  br label %9

8:                                                ; preds = %3
  store ptr null, ptr %2, align 8
  br label %9

9:                                                ; preds = %8, %7, %5, %1
  %.0 = phi ptr [ %2, %5 ], [ null, %7 ], [ %2, %8 ], [ null, %1 ]
  ret ptr %.0
}